target datalayout = "e-m:e-p270:32:32-p271:32:32-p272:64:64-i64:64-i128:128-f80:128-n8:16:32:64-S128"
target triple = "x86_64-pc-linux-gnu"

%"class.llvm::MachineFunctionPass" = type { %"class.llvm::FunctionPass.base", %"class.llvm::MachineFunctionProperties", %"class.llvm::MachineFunctionProperties", %"class.llvm::MachineFunctionProperties" }
%"class.llvm::FunctionPass.base" = type { %"class.llvm::Pass.base" }
%"class.llvm::Pass.base" = type <{ ptr, ptr, ptr, i32 }>
%"class.llvm::MachineFunctionProperties" = type { %"class.std::bitset" }
%"class.std::bitset" = type { %"struct.std::_Base_bitset" }
%"struct.std::_Base_bitset" = type { i64 }
%"class.llvm::MachineBlockFrequencyInfoWrapperPass" = type { %"class.llvm::MachineFunctionPass", %"class.llvm::MachineBlockFrequencyInfo" }
%"class.llvm::MachineBlockFrequencyInfo" = type { %"class.std::unique_ptr.170" }
%"class.std::unique_ptr.170" = type { %"struct.std::__uniq_ptr_data.171" }
%"struct.std::__uniq_ptr_data.171" = type { %"class.std::__uniq_ptr_impl.172" }
%"class.std::__uniq_ptr_impl.172" = type { %"class.std::tuple.173" }
%"class.std::tuple.173" = type { %"struct.std::_Tuple_impl.174" }
%"struct.std::_Tuple_impl.174" = type { %"struct.std::_Head_base.177" }
%"struct.std::_Head_base.177" = type { ptr }
%"class.llvm::BlockFrequency" = type { i64 }
%"class.llvm::RegBankSelect::MBBInsertPoint" = type <{ %"class.llvm::RegBankSelect::InsertPoint.base", [7 x i8], ptr, i8, [7 x i8] }>
%"class.llvm::RegBankSelect::InsertPoint.base" = type <{ ptr, i8 }>
%"class.llvm::Pass" = type <{ ptr, ptr, ptr, i32, [4 x i8] }>

@_ZN4llvm36MachineBlockFrequencyInfoWrapperPass2IDE = external global i8, align 1

; Function Attrs: mustprogress nounwind uwtable
define linkonce_odr hidden noundef i64 @_ZNK4llvm14BlockFrequency12getFrequencyEv(ptr noundef nonnull align 8 dereferenceable(8) %0) #1 comdat align 2 {
  %2 = alloca ptr, align 8
  store ptr %0, ptr %2, align 8
  %3 = load ptr, ptr %2, align 8
  %4 = getelementptr inbounds nuw %"class.llvm::BlockFrequency", ptr %3, i32 0, i32 0
  %5 = load i64, ptr %4, align 8
  ret i64 %5
}

; Function Attrs: mustprogress nounwind uwtable
define linkonce_odr hidden noundef nonnull align 8 dereferenceable(8) ptr @_ZNK4llvm36MachineBlockFrequencyInfoWrapperPass7getMBFIEv(ptr noundef nonnull align 8 dereferenceable(64) %0) #1 comdat align 2 {
  %2 = alloca ptr, align 8
  store ptr %0, ptr %2, align 8
  %3 = load ptr, ptr %2, align 8
  %4 = getelementptr inbounds nuw %"class.llvm::MachineBlockFrequencyInfoWrapperPass", ptr %3, i32 0, i32 1
  ret ptr %4
}

; Function Attrs: mustprogress nounwind uwtable
define linkonce_odr noundef ptr @_ZNK4llvm4Pass22getAnalysisIfAvailableINS_36MachineBlockFrequencyInfoWrapperPassEEEPT_v(ptr noundef nonnull align 8 dereferenceable(28) %0) #1 comdat align 2 {
  %2 = alloca ptr, align 8
  %3 = alloca ptr, align 8
  %4 = alloca ptr, align 8
  %5 = alloca ptr, align 8
  store ptr %0, ptr %3, align 8
  %6 = load ptr, ptr %3, align 8
  store ptr @_ZN4llvm36MachineBlockFrequencyInfoWrapperPass2IDE, ptr %4, align 8
  %7 = getelementptr inbounds nuw %"class.llvm::Pass", ptr %6, i32 0, i32 1
  %8 = load ptr, ptr %7, align 8
  %9 = load ptr, ptr %4, align 8
  %10 = call noundef ptr @_ZNK4llvm16AnalysisResolver22getAnalysisIfAvailableEPKv(ptr noundef nonnull align 8 dereferenceable(32) %8, ptr noundef %9)
  store ptr %10, ptr %5, align 8
  %11 = load ptr, ptr %5, align 8
  %12 = icmp ne ptr %11, null
  br i1 %12, label %14, label %13

13:                                               ; preds = %1
  store ptr null, ptr %2, align 8
  br label %21

14:                                               ; preds = %1
  %15 = load ptr, ptr %5, align 8
  %16 = load ptr, ptr %4, align 8
  %17 = load ptr, ptr %15, align 8
  %18 = getelementptr inbounds ptr, ptr %17, i64 12
  %19 = load ptr, ptr %18, align 8
  %20 = call noundef ptr %19(ptr noundef nonnull align 8 dereferenceable(28) %15, ptr noundef %16)
  store ptr %20, ptr %2, align 8
  br label %21

21:                                               ; preds = %14, %13
  %22 = load ptr, ptr %2, align 8
  ret ptr %22
}

; Function Attrs: mustprogress nounwind uwtable
define dso_local noundef i64 @_ZNK4llvm13RegBankSelect14MBBInsertPoint9frequencyERKNS_4PassE(ptr noundef nonnull align 8 dereferenceable(25) %0, ptr noundef nonnull align 8 dereferenceable(28) %1) unnamed_addr #1 align 2 {
  %3 = alloca i64, align 8
  %4 = alloca ptr, align 8
  %5 = alloca ptr, align 8
  %6 = alloca ptr, align 8
  %7 = alloca %"class.llvm::BlockFrequency", align 8
  store ptr %0, ptr %4, align 8
  store ptr %1, ptr %5, align 8
  %8 = load ptr, ptr %4, align 8
  %9 = load ptr, ptr %5, align 8
  %10 = call noundef ptr @_ZNK4llvm4Pass22getAnalysisIfAvailableINS_36MachineBlockFrequencyInfoWrapperPassEEEPT_v(ptr noundef nonnull align 8 dereferenceable(28) %9)
  store ptr %10, ptr %6, align 8
  %11 = load ptr, ptr %6, align 8
  %12 = icmp ne ptr %11, null
  br i1 %12, label %14, label %13

13:                                               ; preds = %2
  store i64 1, ptr %3, align 8
  br label %22

14:                                               ; preds = %2
  %15 = load ptr, ptr %6, align 8
  %16 = call noundef nonnull align 8 dereferenceable(8) ptr @_ZNK4llvm36MachineBlockFrequencyInfoWrapperPass7getMBFIEv(ptr noundef nonnull align 8 dereferenceable(64) %15)
  %17 = getelementptr inbounds nuw %"class.llvm::RegBankSelect::MBBInsertPoint", ptr %8, i32 0, i32 2
  %18 = load ptr, ptr %17, align 8
  %19 = call i64 @_ZNK4llvm25MachineBlockFrequencyInfo12getBlockFreqEPKNS_17MachineBasicBlockE(ptr noundef nonnull align 8 dereferenceable(8) %16, ptr noundef %18)
  %20 = getelementptr inbounds nuw %"class.llvm::BlockFrequency", ptr %7, i32 0, i32 0
  store i64 %19, ptr %20, align 8
  %21 = call noundef i64 @_ZNK4llvm14BlockFrequency12getFrequencyEv(ptr noundef nonnull align 8 dereferenceable(8) %7)
  store i64 %21, ptr %3, align 8
  br label %22

22:                                               ; preds = %14, %13
  %23 = load i64, ptr %3, align 8
  ret i64 %23
}