; Function Attrs: mustprogress nounwind uwtable
define dso_local noundef i64 @_ZNK4llvm13RegBankSelect14MBBInsertPoint9frequencyERKNS_4PassE(ptr noundef nonnull readonly align 8 captures(none) dereferenceable(25) %0, ptr noundef nonnull readonly align 8 captures(none) dereferenceable(28) %1) unnamed_addr #0 align 2 {
  %3 = getelementptr inbounds nuw i8, ptr %1, i64 8
  %4 = load ptr, ptr %3, align 8
  %5 = tail call noundef ptr @_ZNK4llvm16AnalysisResolver22getAnalysisIfAvailableEPKv(ptr noundef nonnull align 8 dereferenceable(32) %4, ptr noundef nonnull @_ZN4llvm36MachineBlockFrequencyInfoWrapperPass2IDE) #21
  %.not.i = icmp eq ptr %5, null
  br i1 %.not.i, label %_ZNK4llvm4Pass22getAnalysisIfAvailableINS_36MachineBlockFrequencyInfoWrapperPassEEEPT_v.exit.thread, label %_ZNK4llvm4Pass22getAnalysisIfAvailableINS_36MachineBlockFrequencyInfoWrapperPassEEEPT_v.exit

_ZNK4llvm4Pass22getAnalysisIfAvailableINS_36MachineBlockFrequencyInfoWrapperPassEEEPT_v.exit: ; preds = %2
  %6 = load ptr, ptr %5, align 8
  %7 = getelementptr inbounds nuw i8, ptr %6, i64 96
  %8 = load ptr, ptr %7, align 8
  %9 = tail call noundef ptr %8(ptr noundef nonnull align 8 dereferenceable(28) %5, ptr noundef nonnull @_ZN4llvm36MachineBlockFrequencyInfoWrapperPass2IDE) #21
  %.not = icmp eq ptr %9, null
  br i1 %.not, label %_ZNK4llvm4Pass22getAnalysisIfAvailableINS_36MachineBlockFrequencyInfoWrapperPassEEEPT_v.exit.thread, label %10

10:                                               ; preds = %_ZNK4llvm4Pass22getAnalysisIfAvailableINS_36MachineBlockFrequencyInfoWrapperPassEEEPT_v.exit
  %11 = getelementptr inbounds nuw i8, ptr %9, i64 56
  %12 = getelementptr inbounds nuw i8, ptr %0, i64 16
  %13 = load ptr, ptr %12, align 8
  %14 = tail call i64 @_ZNK4llvm25MachineBlockFrequencyInfo12getBlockFreqEPKNS_17MachineBasicBlockE(ptr noundef nonnull align 8 dereferenceable(8) %11, ptr noundef %13) #21
  br label %_ZNK4llvm4Pass22getAnalysisIfAvailableINS_36MachineBlockFrequencyInfoWrapperPassEEEPT_v.exit.thread

_ZNK4llvm4Pass22getAnalysisIfAvailableINS_36MachineBlockFrequencyInfoWrapperPassEEEPT_v.exit.thread: ; preds = %2, %_ZNK4llvm4Pass22getAnalysisIfAvailableINS_36MachineBlockFrequencyInfoWrapperPassEEEPT_v.exit, %10
  %.0 = phi i64 [ %14, %10 ], [ 1, %_ZNK4llvm4Pass22getAnalysisIfAvailableINS_36MachineBlockFrequencyInfoWrapperPassEEEPT_v.exit ], [ 1, %2 ]
  ret i64 %.0
}